target datalayout = "e-m:e-p270:32:32-p271:32:32-p272:64:64-i64:64-i128:128-f80:128-n8:16:32:64-S128"
target triple = "x86_64-unknown-linux-gnu"

%"class.(anonymous namespace)::elim_small_bv_tactic" = type { %class.tactic.base, ptr, %"struct.(anonymous namespace)::elim_small_bv_tactic::rw", %class.params_ref }
%class.tactic.base = type <{ %"class.user_propagator::core", i32 }>
%"class.user_propagator::core" = type { ptr }
%"struct.(anonymous namespace)::elim_small_bv_tactic::rw" = type { %class.rewriter_tpl, %"struct.(anonymous namespace)::elim_small_bv_tactic::rw_cfg" }
%class.rewriter_tpl = type { %class.rewriter_core, ptr, i32, %class.ptr_vector.1, %class.var_shifter, %class.inv_var_shifter, %class.obj_ref, %class.obj_ref.10, %class.obj_ref.10, %class.svector.11 }
%class.rewriter_core = type { ptr, ptr, i8, i8, %class.ptr_vector, ptr, %class.svector, %class.ref_vector, %class.ptr_vector, ptr, %class.ref_vector.3, %class.obj_hashtable, ptr, i32, %class.svector.8 }
%class.svector = type { %class.vector.0 }
%class.vector.0 = type { ptr }
%class.ref_vector = type { %class.ref_vector_core }
%class.ref_vector_core = type { %class.ref_manager_wrapper, %class.ptr_vector.1 }
%class.ref_manager_wrapper = type { ptr }
%class.ptr_vector = type { %class.vector }
%class.vector = type { ptr }
%class.ref_vector.3 = type { %class.ref_vector_core.4 }
%class.ref_vector_core.4 = type { %class.ref_manager_wrapper.5, %class.ptr_vector.6 }
%class.ref_manager_wrapper.5 = type { ptr }
%class.ptr_vector.6 = type { %class.vector.7 }
%class.vector.7 = type { ptr }
%class.obj_hashtable = type { %class.core_hashtable.base, [4 x i8] }
%class.core_hashtable.base = type <{ ptr, i32, i32, i32 }>
%class.svector.8 = type { %class.vector.9 }
%class.vector.9 = type { ptr }
%class.ptr_vector.1 = type { %class.vector.2 }
%class.vector.2 = type { ptr }
%class.var_shifter = type <{ %class.var_shifter_core, i32, i32, i32, [4 x i8] }>
%class.var_shifter_core = type { %class.rewriter_core }
%class.inv_var_shifter = type <{ %class.var_shifter_core, i32, [4 x i8] }>
%class.obj_ref = type { ptr, ptr }
%class.obj_ref.10 = type { ptr, ptr }
%class.svector.11 = type { %class.vector.12 }
%class.vector.12 = type { ptr }
%"struct.(anonymous namespace)::elim_small_bv_tactic::rw_cfg" = type { ptr, %class.params_ref, %class.bv_util, %class.th_rewriter, %class.ref, i32, i64, i64, i8, %class.ref_vector.13, i64 }
%class.bv_util = type { %class.bv_recognizers, ptr, ptr }
%class.bv_recognizers = type { i32 }
%class.th_rewriter = type { ptr, %class.params_ref }
%class.ref = type { ptr }
%class.ref_vector.13 = type { %class.ref_vector_core.14 }
%class.ref_vector_core.14 = type { %class.ref_manager_wrapper.15, %class.ptr_vector.16 }
%class.ref_manager_wrapper.15 = type { ptr }
%class.ptr_vector.16 = type { %class.vector.17 }
%class.vector.17 = type { ptr }
%class.params_ref = type { ptr }

; Function Attrs: mustprogress uwtable
define internal void @_ZN12_GLOBAL__N_120elim_small_bv_tactic7cleanupEv(ptr noundef nonnull align 8 dereferenceable(688) %this) unnamed_addr #4 align 2 {
entry:
  %this.addr = alloca ptr, align 8
  store ptr %this, ptr %this.addr, align 8
  %this1 = load ptr, ptr %this.addr, align 8
  %m_rw = getelementptr inbounds %"class.(anonymous namespace)::elim_small_bv_tactic", ptr %this1, i32 0, i32 2
  call void @_ZN12_GLOBAL__N_120elim_small_bv_tactic2rwD2Ev(ptr noundef nonnull align 8 dereferenceable(656) %m_rw) #3
  %m_rw2 = getelementptr inbounds %"class.(anonymous namespace)::elim_small_bv_tactic", ptr %this1, i32 0, i32 2
  %m = getelementptr inbounds %"class.(anonymous namespace)::elim_small_bv_tactic", ptr %this1, i32 0, i32 1
  %0 = load ptr, ptr %m, align 8
  %m_params = getelementptr inbounds %"class.(anonymous namespace)::elim_small_bv_tactic", ptr %this1, i32 0, i32 3
  call void @_ZN12_GLOBAL__N_120elim_small_bv_tactic2rwC2ER11ast_managerRK10params_ref(ptr noundef nonnull align 8 dereferenceable(656) %m_rw2, ptr noundef nonnull align 8 dereferenceable(976) %0, ptr noundef nonnull align 8 dereferenceable(8) %m_params)
  ret void
}