; Function Attrs: mustprogress uwtable
define internal void @_ZN12_GLOBAL__N_120elim_small_bv_tactic7cleanupEv(ptr noundef nonnull align 8 dereferenceable(688) %this) unnamed_addr #3 align 2 {
entry:
  %m_rw = getelementptr inbounds i8, ptr %this, i64 24
  tail call void @_ZN12_GLOBAL__N_120elim_small_bv_tactic2rwD2Ev(ptr noundef nonnull align 8 dereferenceable(656) %m_rw) #15
  %m = getelementptr inbounds i8, ptr %this, i64 16
  %0 = load ptr, ptr %m, align 8
  %m_params = getelementptr inbounds i8, ptr %this, i64 680
  tail call fastcc void @_ZN12_GLOBAL__N_120elim_small_bv_tactic2rwC2ER11ast_managerRK10params_ref(ptr noundef nonnull align 8 dereferenceable(656) %m_rw, ptr noundef nonnull align 8 dereferenceable(976) %0, ptr noundef nonnull align 8 dereferenceable(8) %m_params)
  ret void
}